target datalayout = "e-m:e-p270:32:32-p271:32:32-p272:64:64-i64:64-i128:128-f80:128-n8:16:32:64-S128"
target triple = "x86_64-pc-linux-gnu"

%"class.cvc5::internal::EmptyBag" = type { %"class.std::unique_ptr" }
%"class.std::unique_ptr" = type { %"struct.std::__uniq_ptr_data" }
%"struct.std::__uniq_ptr_data" = type { %"class.std::__uniq_ptr_impl" }
%"class.std::__uniq_ptr_impl" = type { %"class.std::tuple" }
%"class.std::tuple" = type { %"struct.std::_Tuple_impl" }
%"struct.std::_Tuple_impl" = type { %"struct.std::_Head_base.1" }
%"struct.std::_Head_base.1" = type { ptr }
%"class.cvc5::internal::TypeNode" = type { ptr }

; Function Attrs: mustprogress nounwind uwtable
define linkonce_odr hidden noundef nonnull align 8 dereferenceable(8) ptr @_ZNSt10_Head_baseILm0EPN4cvc58internal8TypeNodeELb0EE7_M_headERS4_(ptr noundef nonnull align 8 dereferenceable(8) %0) #6 comdat align 2 {
  %2 = alloca ptr, align 8
  store ptr %0, ptr %2, align 8, !tbaa !54
  %3 = load ptr, ptr %2, align 8, !tbaa !54
  %4 = getelementptr inbounds nuw %"struct.std::_Head_base.1", ptr %3, i32 0, i32 0
  ret ptr %4
}

; Function Attrs: mustprogress nounwind uwtable
define linkonce_odr hidden noundef nonnull align 8 dereferenceable(8) ptr @_ZNSt11_Tuple_implILm0EJPN4cvc58internal8TypeNodeESt14default_deleteIS2_EEE7_M_headERS6_(ptr noundef nonnull align 8 dereferenceable(8) %0) #6 comdat align 2 {
  %2 = alloca ptr, align 8
  store ptr %0, ptr %2, align 8, !tbaa !50
  %3 = load ptr, ptr %2, align 8, !tbaa !50
  %4 = call noundef nonnull align 8 dereferenceable(8) ptr @_ZNSt10_Head_baseILm0EPN4cvc58internal8TypeNodeELb0EE7_M_headERS4_(ptr noundef nonnull align 8 dereferenceable(8) %3) #3
  ret ptr %4
}

; Function Attrs: mustprogress nounwind uwtable
define linkonce_odr hidden void @_ZNSt10_Head_baseILm1ESt14default_deleteIN4cvc58internal8TypeNodeEELb1EEC2Ev(ptr noundef nonnull align 1 dereferenceable(1) %0) unnamed_addr #6 comdat align 2 {
  %2 = alloca ptr, align 8
  store ptr %0, ptr %2, align 8, !tbaa !58
  ret void
}

; Function Attrs: mustprogress nounwind uwtable
define linkonce_odr noundef nonnull align 8 dereferenceable(8) ptr @_ZSt12__get_helperILm0EPN4cvc58internal8TypeNodeEJSt14default_deleteIS2_EEERT0_RSt11_Tuple_implIXT_EJS6_DpT1_EE(ptr noundef nonnull align 8 dereferenceable(8) %0) #6 comdat {
  %2 = alloca ptr, align 8
  store ptr %0, ptr %2, align 8, !tbaa !50
  %3 = load ptr, ptr %2, align 8, !tbaa !50
  %4 = call noundef nonnull align 8 dereferenceable(8) ptr @_ZNSt11_Tuple_implILm0EJPN4cvc58internal8TypeNodeESt14default_deleteIS2_EEE7_M_headERS6_(ptr noundef nonnull align 8 dereferenceable(8) %3) #3
  ret ptr %4
}

; Function Attrs: mustprogress nounwind uwtable
define linkonce_odr hidden void @_ZNSt10_Head_baseILm0EPN4cvc58internal8TypeNodeELb0EEC2Ev(ptr noundef nonnull align 8 dereferenceable(8) %0) unnamed_addr #6 comdat align 2 {
  %2 = alloca ptr, align 8
  store ptr %0, ptr %2, align 8, !tbaa !54
  %3 = load ptr, ptr %2, align 8
  %4 = getelementptr inbounds nuw %"struct.std::_Head_base.1", ptr %3, i32 0, i32 0
  store ptr null, ptr %4, align 8, !tbaa !56
  ret void
}

; Function Attrs: mustprogress uwtable
define linkonce_odr hidden void @_ZNSt11_Tuple_implILm1EJSt14default_deleteIN4cvc58internal8TypeNodeEEEEC2Ev(ptr noundef nonnull align 1 dereferenceable(1) %0) unnamed_addr #4 comdat align 2 {
  %2 = alloca ptr, align 8
  store ptr %0, ptr %2, align 8, !tbaa !52
  %3 = load ptr, ptr %2, align 8
  call void @_ZNSt10_Head_baseILm1ESt14default_deleteIN4cvc58internal8TypeNodeEELb1EEC2Ev(ptr noundef nonnull align 1 dereferenceable(1) %3)
  ret void
}

; Function Attrs: mustprogress nounwind uwtable
define linkonce_odr noundef nonnull align 8 dereferenceable(8) ptr @_ZSt3getILm0EJPN4cvc58internal8TypeNodeESt14default_deleteIS2_EEERNSt13tuple_elementIXT_ESt5tupleIJDpT0_EEE4typeERSA_(ptr noundef nonnull align 8 dereferenceable(8) %0) #6 comdat {
  %2 = alloca ptr, align 8
  store ptr %0, ptr %2, align 8, !tbaa !48
  %3 = load ptr, ptr %2, align 8, !tbaa !48
  %4 = call noundef nonnull align 8 dereferenceable(8) ptr @_ZSt12__get_helperILm0EPN4cvc58internal8TypeNodeEJSt14default_deleteIS2_EEERT0_RSt11_Tuple_implIXT_EJS6_DpT1_EE(ptr noundef nonnull align 8 dereferenceable(8) %3) #3
  ret ptr %4
}

; Function Attrs: mustprogress uwtable
define linkonce_odr hidden void @_ZNSt11_Tuple_implILm0EJPN4cvc58internal8TypeNodeESt14default_deleteIS2_EEEC2Ev(ptr noundef nonnull align 8 dereferenceable(8) %0) unnamed_addr #4 comdat align 2 {
  %2 = alloca ptr, align 8
  store ptr %0, ptr %2, align 8, !tbaa !50
  %3 = load ptr, ptr %2, align 8
  call void @_ZNSt11_Tuple_implILm1EJSt14default_deleteIN4cvc58internal8TypeNodeEEEEC2Ev(ptr noundef nonnull align 1 dereferenceable(1) %3)
  call void @_ZNSt10_Head_baseILm0EPN4cvc58internal8TypeNodeELb0EEC2Ev(ptr noundef nonnull align 8 dereferenceable(8) %3)
  ret void
}

; Function Attrs: mustprogress nounwind uwtable
define linkonce_odr hidden noundef nonnull align 8 dereferenceable(8) ptr @_ZNSt15__uniq_ptr_implIN4cvc58internal8TypeNodeESt14default_deleteIS2_EE6_M_ptrEv(ptr noundef nonnull align 8 dereferenceable(8) %0) #6 comdat align 2 {
  %2 = alloca ptr, align 8
  store ptr %0, ptr %2, align 8, !tbaa !46
  %3 = load ptr, ptr %2, align 8
  %4 = getelementptr inbounds nuw %"class.std::__uniq_ptr_impl", ptr %3, i32 0, i32 0
  %5 = call noundef nonnull align 8 dereferenceable(8) ptr @_ZSt3getILm0EJPN4cvc58internal8TypeNodeESt14default_deleteIS2_EEERNSt13tuple_elementIXT_ESt5tupleIJDpT0_EEE4typeERSA_(ptr noundef nonnull align 8 dereferenceable(8) %4) #3
  ret ptr %5
}

; Function Attrs: mustprogress nounwind uwtable
define linkonce_odr hidden void @_ZNSt5tupleIJPN4cvc58internal8TypeNodeESt14default_deleteIS2_EEEC2ILb1ETnNSt9enable_ifIXclsr17_TupleConstraintsIXT_ES3_S5_EE37__is_implicitly_default_constructibleEEbE4typeELb1EEEv(ptr noundef nonnull align 8 dereferenceable(8) %0) unnamed_addr #6 comdat align 2 personality ptr @__gxx_personality_v0 {
  %2 = alloca ptr, align 8
  store ptr %0, ptr %2, align 8, !tbaa !48
  %3 = load ptr, ptr %2, align 8
  invoke void @_ZNSt11_Tuple_implILm0EJPN4cvc58internal8TypeNodeESt14default_deleteIS2_EEEC2Ev(ptr noundef nonnull align 8 dereferenceable(8) %3)
          to label %4 unwind label %5

4:                                                ; preds = %1
  ret void

5:                                                ; preds = %1
  %6 = landingpad { ptr, i32 }
          catch ptr null
  %7 = extractvalue { ptr, i32 } %6, 0
  call void @__clang_call_terminate(ptr %7) #15
  unreachable
}

; Function Attrs: mustprogress nounwind uwtable
define linkonce_odr hidden void @_ZNSt15__uniq_ptr_implIN4cvc58internal8TypeNodeESt14default_deleteIS2_EEC2EPS2_(ptr noundef nonnull align 8 dereferenceable(8) %0, ptr noundef %1) unnamed_addr #6 comdat align 2 {
  %3 = alloca ptr, align 8
  %4 = alloca ptr, align 8
  store ptr %0, ptr %3, align 8, !tbaa !46
  store ptr %1, ptr %4, align 8, !tbaa !13
  %5 = load ptr, ptr %3, align 8
  %6 = getelementptr inbounds nuw %"class.std::__uniq_ptr_impl", ptr %5, i32 0, i32 0
  call void @_ZNSt5tupleIJPN4cvc58internal8TypeNodeESt14default_deleteIS2_EEEC2ILb1ETnNSt9enable_ifIXclsr17_TupleConstraintsIXT_ES3_S5_EE37__is_implicitly_default_constructibleEEbE4typeELb1EEEv(ptr noundef nonnull align 8 dereferenceable(8) %6) #3
  %7 = load ptr, ptr %4, align 8, !tbaa !13
  %8 = call noundef nonnull align 8 dereferenceable(8) ptr @_ZNSt15__uniq_ptr_implIN4cvc58internal8TypeNodeESt14default_deleteIS2_EE6_M_ptrEv(ptr noundef nonnull align 8 dereferenceable(8) %5) #3
  store ptr %7, ptr %8, align 8, !tbaa !13
  ret void
}

; Function Attrs: noinline noreturn nounwind uwtable
define linkonce_odr hidden void @__clang_call_terminate(ptr noundef %0) #12 comdat {
  %2 = call ptr @__cxa_begin_catch(ptr %0) #3
  call void @_ZSt9terminatev() #15
  unreachable
}

; Function Attrs: inlinehint mustprogress uwtable
define linkonce_odr hidden void @_ZNSt15__uniq_ptr_dataIN4cvc58internal8TypeNodeESt14default_deleteIS2_ELb1ELb1EECI2St15__uniq_ptr_implIS2_S4_EEPS2_(ptr noundef nonnull align 8 dereferenceable(8) %0, ptr noundef %1) unnamed_addr #5 comdat align 2 {
  %3 = alloca ptr, align 8
  %4 = alloca ptr, align 8
  store ptr %0, ptr %3, align 8, !tbaa !44
  store ptr %1, ptr %4, align 8, !tbaa !13
  %5 = load ptr, ptr %3, align 8
  %6 = load ptr, ptr %4, align 8, !tbaa !13
  call void @_ZNSt15__uniq_ptr_implIN4cvc58internal8TypeNodeESt14default_deleteIS2_EEC2EPS2_(ptr noundef nonnull align 8 dereferenceable(8) %5, ptr noundef %6)
  ret void
}

; Function Attrs: mustprogress uwtable
define linkonce_odr hidden void @_ZN4cvc58internal4expr9NodeValue3incEv(ptr noundef nonnull align 8 dereferenceable(24) %0) #4 comdat align 2 {
  %2 = alloca ptr, align 8
  store ptr %0, ptr %2, align 8, !tbaa !26
  %3 = load ptr, ptr %2, align 8
  %4 = load i64, ptr %3, align 8
  %5 = lshr i64 %4, 40
  %6 = and i64 %5, 1048575
  %7 = trunc i64 %6 to i32
  %8 = icmp ult i32 %7, 1048574
  %9 = zext i1 %8 to i64
  %10 = call i64 @llvm.expect.i64(i64 %9, i64 1)
  %11 = icmp ne i64 %10, 0
  br i1 %11, label %12, label %24

12:                                               ; preds = %1
  %13 = load i64, ptr %3, align 8
  %14 = lshr i64 %13, 40
  %15 = and i64 %14, 1048575
  %16 = trunc i64 %15 to i32
  %17 = add i32 %16, 1
  %18 = zext i32 %17 to i64
  %19 = load i64, ptr %3, align 8
  %20 = and i64 %18, 1048575
  %21 = shl i64 %20, 40
  %22 = and i64 %19, -1152920405095219201
  %23 = or i64 %22, %21
  store i64 %23, ptr %3, align 8
  br label %46

24:                                               ; preds = %1
  %25 = load i64, ptr %3, align 8
  %26 = lshr i64 %25, 40
  %27 = and i64 %26, 1048575
  %28 = trunc i64 %27 to i32
  %29 = icmp eq i32 %28, 1048574
  %30 = zext i1 %29 to i64
  %31 = call i64 @llvm.expect.i64(i64 %30, i64 0)
  %32 = icmp ne i64 %31, 0
  br i1 %32, label %33, label %45

33:                                               ; preds = %24
  %34 = load i64, ptr %3, align 8
  %35 = lshr i64 %34, 40
  %36 = and i64 %35, 1048575
  %37 = trunc i64 %36 to i32
  %38 = add i32 %37, 1
  %39 = zext i32 %38 to i64
  %40 = load i64, ptr %3, align 8
  %41 = and i64 %39, 1048575
  %42 = shl i64 %41, 40
  %43 = and i64 %40, -1152920405095219201
  %44 = or i64 %43, %42
  store i64 %44, ptr %3, align 8
  call void @_ZN4cvc58internal4expr9NodeValue20markRefCountMaxedOutEv(ptr noundef nonnull align 8 dereferenceable(24) %3)
  br label %45

45:                                               ; preds = %33, %24
  br label %46

46:                                               ; preds = %45, %12
  ret void
}

; Function Attrs: mustprogress nounwind uwtable
define linkonce_odr hidden void @_ZNSt10unique_ptrIN4cvc58internal8TypeNodeESt14default_deleteIS2_EEC2IS4_vEEPS2_(ptr noundef nonnull align 8 dereferenceable(8) %0, ptr noundef %1) unnamed_addr #6 comdat align 2 personality ptr @__gxx_personality_v0 {
  %3 = alloca ptr, align 8
  %4 = alloca ptr, align 8
  store ptr %0, ptr %3, align 8, !tbaa !22
  store ptr %1, ptr %4, align 8, !tbaa !13
  %5 = load ptr, ptr %3, align 8
  %6 = getelementptr inbounds nuw %"class.std::unique_ptr", ptr %5, i32 0, i32 0
  %7 = load ptr, ptr %4, align 8, !tbaa !13
  invoke void @_ZNSt15__uniq_ptr_dataIN4cvc58internal8TypeNodeESt14default_deleteIS2_ELb1ELb1EECI2St15__uniq_ptr_implIS2_S4_EEPS2_(ptr noundef nonnull align 8 dereferenceable(8) %6, ptr noundef %7)
          to label %8 unwind label %9

8:                                                ; preds = %2
  ret void

9:                                                ; preds = %2
  %10 = landingpad { ptr, i32 }
          catch ptr null
  %11 = extractvalue { ptr, i32 } %10, 0
  call void @__clang_call_terminate(ptr %11) #15
  unreachable
}

; Function Attrs: inlinehint mustprogress uwtable
define linkonce_odr hidden void @_ZN4cvc58internal8TypeNodeC2ERKS1_(ptr noundef nonnull align 8 dereferenceable(8) %0, ptr noundef nonnull align 8 dereferenceable(8) %1) unnamed_addr #5 comdat align 2 {
  %3 = alloca ptr, align 8
  %4 = alloca ptr, align 8
  store ptr %0, ptr %3, align 8, !tbaa !13
  store ptr %1, ptr %4, align 8, !tbaa !13
  %5 = load ptr, ptr %3, align 8
  %6 = load ptr, ptr %4, align 8, !tbaa !13
  %7 = getelementptr inbounds nuw %"class.cvc5::internal::TypeNode", ptr %6, i32 0, i32 0
  %8 = load ptr, ptr %7, align 8, !tbaa !19
  %9 = getelementptr inbounds nuw %"class.cvc5::internal::TypeNode", ptr %5, i32 0, i32 0
  store ptr %8, ptr %9, align 8, !tbaa !19
  %10 = getelementptr inbounds nuw %"class.cvc5::internal::TypeNode", ptr %5, i32 0, i32 0
  %11 = load ptr, ptr %10, align 8, !tbaa !19
  call void @_ZN4cvc58internal4expr9NodeValue3incEv(ptr noundef nonnull align 8 dereferenceable(24) %11)
  ret void
}

; Function Attrs: mustprogress uwtable
define hidden void @_ZN4cvc58internal8EmptyBagC2ERKNS0_8TypeNodeE(ptr noundef nonnull align 8 dereferenceable(8) %0, ptr noundef nonnull align 8 dereferenceable(8) %1) unnamed_addr #4 align 2 personality ptr @__gxx_personality_v0 {
  %3 = alloca ptr, align 8
  %4 = alloca ptr, align 8
  %5 = alloca ptr, align 8
  %6 = alloca i32, align 4
  store ptr %0, ptr %3, align 8, !tbaa !8
  store ptr %1, ptr %4, align 8, !tbaa !13
  %7 = load ptr, ptr %3, align 8
  %8 = getelementptr inbounds nuw %"class.cvc5::internal::EmptyBag", ptr %7, i32 0, i32 0
  %9 = call noalias noundef nonnull ptr @_Znwm(i64 noundef 8) #13
  %10 = load ptr, ptr %4, align 8, !tbaa !13
  invoke void @_ZN4cvc58internal8TypeNodeC2ERKS1_(ptr noundef nonnull align 8 dereferenceable(8) %9, ptr noundef nonnull align 8 dereferenceable(8) %10)
          to label %11 unwind label %12

11:                                               ; preds = %2
  call void @_ZNSt10unique_ptrIN4cvc58internal8TypeNodeESt14default_deleteIS2_EEC2IS4_vEEPS2_(ptr noundef nonnull align 8 dereferenceable(8) %8, ptr noundef %9) #3
  ret void

12:                                               ; preds = %2
  %13 = landingpad { ptr, i32 }
          cleanup
  %14 = extractvalue { ptr, i32 } %13, 0
  store ptr %14, ptr %5, align 8
  %15 = extractvalue { ptr, i32 } %13, 1
  store i32 %15, ptr %6, align 4
  call void @_ZdlPvm(ptr noundef %9, i64 noundef 8) #14
  br label %16

16:                                               ; preds = %12
  %17 = load ptr, ptr %5, align 8
  %18 = load i32, ptr %6, align 4
  %19 = insertvalue { ptr, i32 } poison, ptr %17, 0
  %20 = insertvalue { ptr, i32 } %19, i32 %18, 1
  resume { ptr, i32 } %20
}